target datalayout = "e-m:e-p270:32:32-p271:32:32-p272:64:64-i64:64-i128:128-f80:128-n8:16:32:64-S128"
target triple = "x86_64-pc-linux-gnu"

%struct.WOLFSSL = type <{ ptr, ptr, ptr, ptr, [48 x i8], [48 x i8], ptr, ptr, ptr, ptr, ptr, ptr, ptr, ptr, ptr, ptr, ptr, ptr, ptr, i32, [4 x i8], %struct.WOLFSSL_CIPHER, ptr, %struct.Ciphers, %struct.Ciphers, [8 x i8], %struct.Buffers, ptr, ptr, %struct.WOLFSSL_ALERT_HISTORY, %struct.WOLFSSL_ALERT, i32, i32, i32, i32, i32, i32, i32, i16, [2 x i8], i32, i8, %struct.RecordLayerHeader, %struct.MsgsReceived, %struct.ProtocolVersion, %struct.ProtocolVersion, %struct.CipherSpecs, [2 x i8], %struct.Keys, %struct.Options, ptr, i8, i8, i16, [10 x i16], i8, i8, i16, i16, [38 x i8], i32, i32, [4 x i8], ptr, i8, i8, [6 x i8], ptr, ptr, i16, i8, i8, i32, i8, [3 x i8], i32, %struct.OneTimeAuth, ptr }>
%struct.WOLFSSL_CIPHER = type { i8, i8, ptr }
%struct.Ciphers = type { ptr, ptr, ptr, ptr, i8, i8 }
%struct.Buffers = type { %struct.bufferStatic, %struct.bufferStatic, %struct.WOLFSSL_BUFFER_INFO, %struct.WOLFSSL_BUFFER_INFO, %struct.WOLFSSL_BUFFER_INFO, %struct.WOLFSSL_BUFFER_INFO, i32, i32, i8, i8, i8, i8, %struct.WOLFSSL_BUFFER_INFO, %struct.WOLFSSL_BUFFER_INFO, %struct.WOLFSSL_BUFFER_INFO, %struct.WOLFSSL_BUFFER_INFO, ptr, ptr, ptr, i8, i8, i32, i32, ptr, i32, [1 x ptr] }
%struct.bufferStatic = type { [5 x i8], ptr, i32, i32, i32, i8, i8 }
%struct.WOLFSSL_BUFFER_INFO = type { ptr, i32 }
%struct.WOLFSSL_ALERT_HISTORY = type { %struct.WOLFSSL_ALERT, %struct.WOLFSSL_ALERT }
%struct.WOLFSSL_ALERT = type { i32, i32 }
%struct.RecordLayerHeader = type { i8, i8, i8, [2 x i8] }
%struct.MsgsReceived = type { i32 }
%struct.ProtocolVersion = type { i8, i8 }
%struct.CipherSpecs = type { i16, i16, i16, i16, i8, i8, i8, i8, i8, i8, i8, i8 }
%struct.Keys = type { [64 x i8], [64 x i8], [32 x i8], [32 x i8], [16 x i8], [16 x i8], [8 x i8], [12 x i8], [12 x i8], i32, i32, i32, i32, i32, i32, i8, i8, i8, i8 }
%struct.Options = type { i64, i64, i8, i8, i8, i8, i8, i8, i8, i8, i8, i8, i8, i8, i8, i8, i8, i8, i8, i8, i8, i8, i8, i16, i16, i16, i16, i16, i8 }
%struct.OneTimeAuth = type { ptr, i8 }
%struct.HS_Hashes = type { %struct.Hashes, %struct.Hashes, %struct.wc_Sha, %struct.wc_Md5, [8 x i8], %struct.wc_Sha256, %struct.wc_Sha512, %struct.wc_Sha512 }
%struct.Hashes = type { [16 x i8], [20 x i8], [32 x i8], [48 x i8], [64 x i8] }
%struct.wc_Sha = type { i32, i32, i32, [16 x i32], [5 x i32], ptr }
%struct.wc_Md5 = type { i32, i32, i32, [16 x i32], [4 x i32], ptr }
%struct.wc_Sha256 = type { [8 x i32], [16 x i32], i32, i32, i32, ptr, [8 x i8] }
%struct.wc_Sha512 = type { [8 x i64], [16 x i64], i32, i64, i64, ptr }

; Function Attrs: nounwind uwtable
define i32 @DoFinished(ptr noundef %0, ptr noundef %1, ptr noundef %2, i32 noundef %3, i32 noundef %4, i32 noundef %5) #0 {
  %7 = alloca i32, align 4
  %8 = alloca ptr, align 8
  %9 = alloca ptr, align 8
  %10 = alloca ptr, align 8
  %11 = alloca i32, align 4
  %12 = alloca i32, align 4
  %13 = alloca i32, align 4
  %14 = alloca i32, align 4
  %15 = alloca i32, align 4
  store ptr %0, ptr %8, align 8, !tbaa !3
  store ptr %1, ptr %9, align 8, !tbaa !89
  store ptr %2, ptr %10, align 8, !tbaa !143
  store i32 %3, ptr %11, align 4, !tbaa !47
  store i32 %4, ptr %12, align 4, !tbaa !47
  store i32 %5, ptr %13, align 4, !tbaa !47
  call void @llvm.lifetime.start.p0(i64 4, ptr %14) #9
  %16 = load ptr, ptr %8, align 8, !tbaa !3
  %17 = getelementptr inbounds nuw %struct.WOLFSSL, ptr %16, i32 0, i32 49
  %18 = getelementptr inbounds nuw %struct.Options, ptr %17, i32 0, i32 1
  %19 = load i64, ptr %18, align 8
  %20 = lshr i64 %19, 14
  %21 = and i64 %20, 1
  %22 = trunc i64 %21 to i16
  %23 = zext i16 %22 to i32
  %24 = icmp ne i32 %23, 0
  %25 = select i1 %24, i32 12, i32 36
  store i32 %25, ptr %14, align 4, !tbaa !47
  br label %26

26:                                               ; preds = %6
  br label %27

27:                                               ; preds = %26
  br label %28

28:                                               ; preds = %27
  br label %29

29:                                               ; preds = %28
  br label %30

30:                                               ; preds = %29
  br label %31

31:                                               ; preds = %30
  %32 = load i32, ptr %14, align 4, !tbaa !47
  %33 = load i32, ptr %11, align 4, !tbaa !47
  %34 = icmp ne i32 %32, %33
  br i1 %34, label %35, label %36

35:                                               ; preds = %31
  store i32 -328, ptr %7, align 4
  store i32 1, ptr %15, align 4
  br label %142

36:                                               ; preds = %31
  %37 = load i32, ptr %11, align 4, !tbaa !47
  %38 = load i32, ptr %12, align 4, !tbaa !47
  %39 = icmp ne i32 %37, %38
  br i1 %39, label %40, label %54

40:                                               ; preds = %36
  %41 = load ptr, ptr %10, align 8, !tbaa !143
  %42 = load i32, ptr %41, align 4, !tbaa !47
  %43 = load i32, ptr %11, align 4, !tbaa !47
  %44 = add i32 %42, %43
  %45 = load ptr, ptr %8, align 8, !tbaa !3
  %46 = getelementptr inbounds nuw %struct.WOLFSSL, ptr %45, i32 0, i32 48
  %47 = getelementptr inbounds nuw %struct.Keys, ptr %46, i32 0, i32 14
  %48 = load i32, ptr %47, align 4, !tbaa !348
  %49 = add i32 %44, %48
  %50 = load i32, ptr %12, align 4, !tbaa !47
  %51 = icmp ugt i32 %49, %50
  br i1 %51, label %52, label %53

52:                                               ; preds = %40
  store i32 -132, ptr %7, align 4
  store i32 1, ptr %15, align 4
  br label %142

53:                                               ; preds = %40
  br label %54

54:                                               ; preds = %53, %36
  %55 = load i32, ptr %13, align 4, !tbaa !47
  %56 = icmp eq i32 %55, 0
  br i1 %56, label %57, label %76

57:                                               ; preds = %54
  %58 = load ptr, ptr %9, align 8, !tbaa !89
  %59 = load ptr, ptr %10, align 8, !tbaa !143
  %60 = load i32, ptr %59, align 4, !tbaa !47
  %61 = zext i32 %60 to i64
  %62 = getelementptr inbounds nuw i8, ptr %58, i64 %61
  %63 = load ptr, ptr %8, align 8, !tbaa !3
  %64 = getelementptr inbounds nuw %struct.WOLFSSL, ptr %63, i32 0, i32 6
  %65 = load ptr, ptr %64, align 16, !tbaa !195
  %66 = getelementptr inbounds nuw %struct.HS_Hashes, ptr %65, i32 0, i32 0
  %67 = load i32, ptr %11, align 4, !tbaa !47
  %68 = zext i32 %67 to i64
  %69 = call i32 @memcmp(ptr noundef %62, ptr noundef %66, i64 noundef %68) #10
  %70 = icmp ne i32 %69, 0
  br i1 %70, label %71, label %75

71:                                               ; preds = %57
  br label %72

72:                                               ; preds = %71
  br label %73

73:                                               ; preds = %72
  br label %74

74:                                               ; preds = %73
  store i32 -304, ptr %7, align 4
  store i32 1, ptr %15, align 4
  br label %142

75:                                               ; preds = %57
  br label %76

76:                                               ; preds = %75, %54
  %77 = load i32, ptr %11, align 4, !tbaa !47
  %78 = load ptr, ptr %8, align 8, !tbaa !3
  %79 = getelementptr inbounds nuw %struct.WOLFSSL, ptr %78, i32 0, i32 48
  %80 = getelementptr inbounds nuw %struct.Keys, ptr %79, i32 0, i32 14
  %81 = load i32, ptr %80, align 4, !tbaa !348
  %82 = add i32 %77, %81
  %83 = load ptr, ptr %10, align 8, !tbaa !143
  %84 = load i32, ptr %83, align 4, !tbaa !47
  %85 = add i32 %84, %82
  store i32 %85, ptr %83, align 4, !tbaa !47
  %86 = load ptr, ptr %8, align 8, !tbaa !3
  %87 = getelementptr inbounds nuw %struct.WOLFSSL, ptr %86, i32 0, i32 49
  %88 = getelementptr inbounds nuw %struct.Options, ptr %87, i32 0, i32 1
  %89 = load i64, ptr %88, align 8
  %90 = lshr i64 %89, 4
  %91 = and i64 %90, 3
  %92 = trunc i64 %91 to i16
  %93 = zext i16 %92 to i32
  %94 = icmp eq i32 %93, 1
  br i1 %94, label %95, label %115

95:                                               ; preds = %76
  %96 = load ptr, ptr %8, align 8, !tbaa !3
  %97 = getelementptr inbounds nuw %struct.WOLFSSL, ptr %96, i32 0, i32 49
  %98 = getelementptr inbounds nuw %struct.Options, ptr %97, i32 0, i32 13
  store i8 10, ptr %98, align 1, !tbaa !214
  %99 = load ptr, ptr %8, align 8, !tbaa !3
  %100 = getelementptr inbounds nuw %struct.WOLFSSL, ptr %99, i32 0, i32 49
  %101 = getelementptr inbounds nuw %struct.Options, ptr %100, i32 0, i32 1
  %102 = load i64, ptr %101, align 8
  %103 = lshr i64 %102, 11
  %104 = and i64 %103, 1
  %105 = trunc i64 %104 to i16
  %106 = icmp ne i16 %105, 0
  br i1 %106, label %114, label %107

107:                                              ; preds = %95
  %108 = load ptr, ptr %8, align 8, !tbaa !3
  %109 = getelementptr inbounds nuw %struct.WOLFSSL, ptr %108, i32 0, i32 49
  %110 = getelementptr inbounds nuw %struct.Options, ptr %109, i32 0, i32 15
  store i8 16, ptr %110, align 1, !tbaa !218
  %111 = load ptr, ptr %8, align 8, !tbaa !3
  %112 = getelementptr inbounds nuw %struct.WOLFSSL, ptr %111, i32 0, i32 49
  %113 = getelementptr inbounds nuw %struct.Options, ptr %112, i32 0, i32 16
  store i8 1, ptr %113, align 2, !tbaa !275
  br label %114

114:                                              ; preds = %107, %95
  br label %135

115:                                              ; preds = %76
  %116 = load ptr, ptr %8, align 8, !tbaa !3
  %117 = getelementptr inbounds nuw %struct.WOLFSSL, ptr %116, i32 0, i32 49
  %118 = getelementptr inbounds nuw %struct.Options, ptr %117, i32 0, i32 14
  store i8 15, ptr %118, align 4, !tbaa !215
  %119 = load ptr, ptr %8, align 8, !tbaa !3
  %120 = getelementptr inbounds nuw %struct.WOLFSSL, ptr %119, i32 0, i32 49
  %121 = getelementptr inbounds nuw %struct.Options, ptr %120, i32 0, i32 1
  %122 = load i64, ptr %121, align 8
  %123 = lshr i64 %122, 11
  %124 = and i64 %123, 1
  %125 = trunc i64 %124 to i16
  %126 = icmp ne i16 %125, 0
  br i1 %126, label %127, label %134

127:                                              ; preds = %115
  %128 = load ptr, ptr %8, align 8, !tbaa !3
  %129 = getelementptr inbounds nuw %struct.WOLFSSL, ptr %128, i32 0, i32 49
  %130 = getelementptr inbounds nuw %struct.Options, ptr %129, i32 0, i32 15
  store i8 16, ptr %130, align 1, !tbaa !218
  %131 = load ptr, ptr %8, align 8, !tbaa !3
  %132 = getelementptr inbounds nuw %struct.WOLFSSL, ptr %131, i32 0, i32 49
  %133 = getelementptr inbounds nuw %struct.Options, ptr %132, i32 0, i32 16
  store i8 1, ptr %133, align 2, !tbaa !275
  br label %134

134:                                              ; preds = %127, %115
  br label %135

135:                                              ; preds = %134, %114
  br label %136

136:                                              ; preds = %135
  br label %137

137:                                              ; preds = %136
  br label %138

138:                                              ; preds = %137
  br label %139

139:                                              ; preds = %138
  br label %140

140:                                              ; preds = %139
  br label %141

141:                                              ; preds = %140
  store i32 0, ptr %7, align 4
  store i32 1, ptr %15, align 4
  br label %142

142:                                              ; preds = %141, %74, %52, %35
  call void @llvm.lifetime.end.p0(i64 4, ptr %14) #9
  %143 = load i32, ptr %7, align 4
  ret i32 %143
}