; Function Attrs: mustprogress nofree nounwind willreturn memory(read, argmem: readwrite, inaccessiblemem: none) uwtable
define range(i32 -328, 1) i32 @DoFinished(ptr noundef captures(none) %0, ptr noundef readonly captures(none) %1, ptr noundef captures(none) %2, i32 noundef %3, i32 noundef %4, i32 noundef %5) local_unnamed_addr #16 {
  %7 = getelementptr inbounds nuw i8, ptr %0, i64 1024
  %8 = load i64, ptr %7, align 8
  %9 = and i64 %8, 16384
  %.not = icmp eq i64 %9, 0
  %10 = select i1 %.not, i32 36, i32 12
  %.not28 = icmp eq i32 %10, %3
  br i1 %.not28, label %11, label %41

11:                                               ; preds = %6
  %.not29 = icmp eq i32 %3, %4
  %.pre.pre = load i32, ptr %2, align 4, !tbaa !49
  br i1 %.not29, label %18, label %12

12:                                               ; preds = %11
  %13 = add i32 %.pre.pre, %3
  %14 = getelementptr inbounds nuw i8, ptr %0, i64 1008
  %15 = load i32, ptr %14, align 4, !tbaa !232
  %16 = add i32 %13, %15
  %17 = icmp ugt i32 %16, %4
  br i1 %17, label %41, label %18

18:                                               ; preds = %12, %11
  %19 = icmp eq i32 %5, 0
  br i1 %19, label %20, label %26

20:                                               ; preds = %18
  %21 = zext i32 %.pre.pre to i64
  %22 = getelementptr inbounds nuw i8, ptr %1, i64 %21
  %23 = getelementptr inbounds nuw i8, ptr %0, i64 128
  %24 = load ptr, ptr %23, align 16, !tbaa !159
  %25 = zext nneg i32 %3 to i64
  %bcmp = tail call i32 @bcmp(ptr %22, ptr %24, i64 %25)
  %.not30 = icmp eq i32 %bcmp, 0
  br i1 %.not30, label %26, label %41

26:                                               ; preds = %20, %18
  %27 = getelementptr inbounds nuw i8, ptr %0, i64 1008
  %28 = load i32, ptr %27, align 4, !tbaa !232
  %29 = add i32 %28, %3
  %30 = add i32 %29, %.pre.pre
  store i32 %30, ptr %2, align 4, !tbaa !49
  %31 = load i64, ptr %7, align 8
  %32 = and i64 %31, 48
  %33 = icmp eq i64 %32, 16
  %34 = and i64 %31, 2048
  %.not32 = icmp eq i64 %34, 0
  br i1 %33, label %35, label %37

35:                                               ; preds = %26
  %36 = getelementptr inbounds nuw i8, ptr %0, i64 1043
  store i8 10, ptr %36, align 1, !tbaa !230
  br i1 %.not32, label %.sink.split, label %41

37:                                               ; preds = %26
  %38 = getelementptr inbounds nuw i8, ptr %0, i64 1044
  store i8 15, ptr %38, align 4, !tbaa !177
  br i1 %.not32, label %41, label %.sink.split

.sink.split:                                      ; preds = %37, %35
  %39 = getelementptr inbounds nuw i8, ptr %0, i64 1045
  store i8 16, ptr %39, align 1, !tbaa !280
  %40 = getelementptr inbounds nuw i8, ptr %0, i64 1046
  store i8 1, ptr %40, align 2, !tbaa !229
  br label %41

41:                                               ; preds = %.sink.split, %35, %37, %20, %12, %6
  %.0 = phi i32 [ -328, %6 ], [ -132, %12 ], [ -304, %20 ], [ 0, %37 ], [ 0, %35 ], [ 0, %.sink.split ]
  ret i32 %.0
}